target datalayout = "e-m:e-p270:32:32-p271:32:32-p272:64:64-i64:64-i128:128-f80:128-n8:16:32:64-S128"
target triple = "x86_64-pc-linux-gnu"

%struct._phar_metadata_tracker = type { %struct._zval_struct, ptr }
%struct._zval_struct = type { %union._zend_value, %union.anon.3, %union.anon.6 }
%union._zend_value = type { i64 }
%union.anon.3 = type { i32 }
%union.anon.6 = type { i32 }
%struct._phar_entry_info = type { i32, i32, i32, i32, i32, i32, %struct._phar_metadata_tracker, ptr, i32, i64, i64, i64, ptr, ptr, i32, ptr, ptr, ptr, i8, i32, i16, i16 }
%struct._phar_entry_data = type { ptr, ptr, i64, i64, ptr }
%struct._php_stream = type { ptr, ptr, %struct._php_stream_filter_chain, %struct._php_stream_filter_chain, ptr, ptr, %struct._zval_struct, i16, [16 x i8], i32, ptr, ptr, ptr, ptr, i64, ptr, i64, i64, i64, i64, ptr }
%struct._php_stream_filter_chain = type { ptr, ptr, ptr }

; Function Attrs: nounwind uwtable
define internal i32 @phar_stream_seek(ptr noundef %0, i64 noundef %1, i32 noundef %2, ptr noundef %3) #0 {
  %5 = alloca i32, align 4
  %6 = alloca ptr, align 8
  %7 = alloca i64, align 8
  %8 = alloca i32, align 4
  %9 = alloca ptr, align 8
  %10 = alloca ptr, align 8
  %11 = alloca ptr, align 8
  %12 = alloca i32, align 4
  %13 = alloca i64, align 8
  %14 = alloca i32, align 4
  store ptr %0, ptr %6, align 8, !tbaa !77
  store i64 %1, ptr %7, align 8, !tbaa !20
  store i32 %2, ptr %8, align 4, !tbaa !11
  store ptr %3, ptr %9, align 8, !tbaa !130
  call void @llvm.lifetime.start.p0(i64 8, ptr %10) #14
  %15 = load ptr, ptr %6, align 8, !tbaa !77
  %16 = getelementptr inbounds nuw %struct._php_stream, ptr %15, i32 0, i32 1
  %17 = load ptr, ptr %16, align 8, !tbaa !118
  store ptr %17, ptr %10, align 8, !tbaa !75
  call void @llvm.lifetime.start.p0(i64 8, ptr %11) #14
  call void @llvm.lifetime.start.p0(i64 4, ptr %12) #14
  call void @llvm.lifetime.start.p0(i64 8, ptr %13) #14
  %18 = load ptr, ptr %10, align 8, !tbaa !75
  %19 = getelementptr inbounds nuw %struct._phar_entry_data, ptr %18, i32 0, i32 4
  %20 = load ptr, ptr %19, align 8, !tbaa !84
  %21 = getelementptr inbounds nuw %struct._phar_entry_info, ptr %20, i32 0, i32 17
  %22 = load ptr, ptr %21, align 8, !tbaa !110
  %23 = icmp ne ptr %22, null
  br i1 %23, label %24, label %29

24:                                               ; preds = %4
  %25 = load ptr, ptr %10, align 8, !tbaa !75
  %26 = getelementptr inbounds nuw %struct._phar_entry_data, ptr %25, i32 0, i32 4
  %27 = load ptr, ptr %26, align 8, !tbaa !84
  %28 = call ptr @phar_get_link_source(ptr noundef %27)
  store ptr %28, ptr %11, align 8, !tbaa !43
  br label %33

29:                                               ; preds = %4
  %30 = load ptr, ptr %10, align 8, !tbaa !75
  %31 = getelementptr inbounds nuw %struct._phar_entry_data, ptr %30, i32 0, i32 4
  %32 = load ptr, ptr %31, align 8, !tbaa !84
  store ptr %32, ptr %11, align 8, !tbaa !43
  br label %33

33:                                               ; preds = %29, %24
  %34 = load i32, ptr %8, align 4, !tbaa !11
  switch i32 %34, label %62 [
    i32 2, label %35
    i32 1, label %46
    i32 0, label %56
  ]

35:                                               ; preds = %33
  %36 = load ptr, ptr %10, align 8, !tbaa !75
  %37 = getelementptr inbounds nuw %struct._phar_entry_data, ptr %36, i32 0, i32 3
  %38 = load i64, ptr %37, align 8, !tbaa !129
  %39 = load ptr, ptr %11, align 8, !tbaa !43
  %40 = getelementptr inbounds nuw %struct._phar_entry_info, ptr %39, i32 0, i32 0
  %41 = load i32, ptr %40, align 8, !tbaa !47
  %42 = zext i32 %41 to i64
  %43 = add nsw i64 %38, %42
  %44 = load i64, ptr %7, align 8, !tbaa !20
  %45 = add nsw i64 %43, %44
  store i64 %45, ptr %13, align 8, !tbaa !20
  br label %63

46:                                               ; preds = %33
  %47 = load ptr, ptr %10, align 8, !tbaa !75
  %48 = getelementptr inbounds nuw %struct._phar_entry_data, ptr %47, i32 0, i32 3
  %49 = load i64, ptr %48, align 8, !tbaa !129
  %50 = load ptr, ptr %10, align 8, !tbaa !75
  %51 = getelementptr inbounds nuw %struct._phar_entry_data, ptr %50, i32 0, i32 2
  %52 = load i64, ptr %51, align 8, !tbaa !125
  %53 = add nsw i64 %49, %52
  %54 = load i64, ptr %7, align 8, !tbaa !20
  %55 = add nsw i64 %53, %54
  store i64 %55, ptr %13, align 8, !tbaa !20
  br label %63

56:                                               ; preds = %33
  %57 = load ptr, ptr %10, align 8, !tbaa !75
  %58 = getelementptr inbounds nuw %struct._phar_entry_data, ptr %57, i32 0, i32 3
  %59 = load i64, ptr %58, align 8, !tbaa !129
  %60 = load i64, ptr %7, align 8, !tbaa !20
  %61 = add nsw i64 %59, %60
  store i64 %61, ptr %13, align 8, !tbaa !20
  br label %63

62:                                               ; preds = %33
  store i64 0, ptr %13, align 8, !tbaa !20
  br label %63

63:                                               ; preds = %62, %56, %46, %35
  %64 = load i64, ptr %13, align 8, !tbaa !20
  %65 = load ptr, ptr %10, align 8, !tbaa !75
  %66 = getelementptr inbounds nuw %struct._phar_entry_data, ptr %65, i32 0, i32 3
  %67 = load i64, ptr %66, align 8, !tbaa !129
  %68 = load ptr, ptr %11, align 8, !tbaa !43
  %69 = getelementptr inbounds nuw %struct._phar_entry_info, ptr %68, i32 0, i32 0
  %70 = load i32, ptr %69, align 8, !tbaa !47
  %71 = zext i32 %70 to i64
  %72 = add nsw i64 %67, %71
  %73 = icmp sgt i64 %64, %72
  br i1 %73, label %74, label %76

74:                                               ; preds = %63
  %75 = load ptr, ptr %9, align 8, !tbaa !130
  store i64 -1, ptr %75, align 8, !tbaa !20
  store i32 -1, ptr %5, align 4
  store i32 1, ptr %14, align 4
  br label %104

76:                                               ; preds = %63
  %77 = load i64, ptr %13, align 8, !tbaa !20
  %78 = load ptr, ptr %10, align 8, !tbaa !75
  %79 = getelementptr inbounds nuw %struct._phar_entry_data, ptr %78, i32 0, i32 3
  %80 = load i64, ptr %79, align 8, !tbaa !129
  %81 = icmp slt i64 %77, %80
  br i1 %81, label %82, label %84

82:                                               ; preds = %76
  %83 = load ptr, ptr %9, align 8, !tbaa !130
  store i64 -1, ptr %83, align 8, !tbaa !20
  store i32 -1, ptr %5, align 4
  store i32 1, ptr %14, align 4
  br label %104

84:                                               ; preds = %76
  %85 = load ptr, ptr %10, align 8, !tbaa !75
  %86 = getelementptr inbounds nuw %struct._phar_entry_data, ptr %85, i32 0, i32 1
  %87 = load ptr, ptr %86, align 8, !tbaa !96
  %88 = load i64, ptr %13, align 8, !tbaa !20
  %89 = call i32 @_php_stream_seek(ptr noundef %87, i64 noundef %88, i32 noundef 0)
  store i32 %89, ptr %12, align 4, !tbaa !11
  %90 = load ptr, ptr %10, align 8, !tbaa !75
  %91 = getelementptr inbounds nuw %struct._phar_entry_data, ptr %90, i32 0, i32 1
  %92 = load ptr, ptr %91, align 8, !tbaa !96
  %93 = call i64 @_php_stream_tell(ptr noundef %92)
  %94 = load ptr, ptr %10, align 8, !tbaa !75
  %95 = getelementptr inbounds nuw %struct._phar_entry_data, ptr %94, i32 0, i32 3
  %96 = load i64, ptr %95, align 8, !tbaa !129
  %97 = sub nsw i64 %93, %96
  %98 = load ptr, ptr %9, align 8, !tbaa !130
  store i64 %97, ptr %98, align 8, !tbaa !20
  %99 = load ptr, ptr %9, align 8, !tbaa !130
  %100 = load i64, ptr %99, align 8, !tbaa !20
  %101 = load ptr, ptr %10, align 8, !tbaa !75
  %102 = getelementptr inbounds nuw %struct._phar_entry_data, ptr %101, i32 0, i32 2
  store i64 %100, ptr %102, align 8, !tbaa !125
  %103 = load i32, ptr %12, align 4, !tbaa !11
  store i32 %103, ptr %5, align 4
  store i32 1, ptr %14, align 4
  br label %104

104:                                              ; preds = %84, %82, %74
  call void @llvm.lifetime.end.p0(i64 8, ptr %13) #14
  call void @llvm.lifetime.end.p0(i64 4, ptr %12) #14
  call void @llvm.lifetime.end.p0(i64 8, ptr %11) #14
  call void @llvm.lifetime.end.p0(i64 8, ptr %10) #14
  %105 = load i32, ptr %5, align 4
  ret i32 %105
}