; Function Attrs: nounwind uwtable
define internal i32 @phar_stream_seek(ptr noundef readonly captures(none) %0, i64 noundef %1, i32 noundef %2, ptr noundef writeonly captures(none) initializes((0, 8)) %3) #0 {
  %5 = getelementptr inbounds nuw i8, ptr %0, i64 8
  %6 = load ptr, ptr %5, align 8, !tbaa !93
  %7 = getelementptr inbounds nuw i8, ptr %6, i64 32
  %8 = load ptr, ptr %7, align 8, !tbaa !63
  %9 = getelementptr inbounds nuw i8, ptr %8, i64 128
  %10 = load ptr, ptr %9, align 8, !tbaa !91
  %.not = icmp eq ptr %10, null
  br i1 %.not, label %13, label %11

11:                                               ; preds = %4
  %12 = tail call ptr @phar_get_link_source(ptr noundef nonnull %8) #15
  br label %13

13:                                               ; preds = %4, %11
  %.029 = phi ptr [ %12, %11 ], [ %8, %4 ]
  %.phi.trans.insert = getelementptr inbounds nuw i8, ptr %6, i64 24
  %.pre = load i64, ptr %.phi.trans.insert, align 8, !tbaa !105
  switch i32 %2, label %._crit_edge [
    i32 2, label %14
    i32 1, label %19
    i32 0, label %24
  ]

14:                                               ; preds = %13
  %15 = load i32, ptr %.029, align 8, !tbaa !34
  %16 = zext i32 %15 to i64
  %17 = add i64 %.pre, %1
  %18 = add i64 %17, %16
  br label %._crit_edge

19:                                               ; preds = %13
  %20 = getelementptr inbounds nuw i8, ptr %6, i64 16
  %21 = load i64, ptr %20, align 8, !tbaa !101
  %22 = add i64 %.pre, %1
  %23 = add i64 %22, %21
  br label %._crit_edge

24:                                               ; preds = %13
  %25 = add nsw i64 %.pre, %1
  br label %._crit_edge

._crit_edge:                                      ; preds = %13, %24, %19, %14
  %.0 = phi i64 [ %25, %24 ], [ %23, %19 ], [ %18, %14 ], [ 0, %13 ]
  %26 = getelementptr inbounds nuw i8, ptr %6, i64 24
  %27 = load i32, ptr %.029, align 8, !tbaa !34
  %28 = zext i32 %27 to i64
  %29 = add nsw i64 %.pre, %28
  %30 = icmp sgt i64 %.0, %29
  br i1 %30, label %31, label %32

31:                                               ; preds = %._crit_edge
  store i64 -1, ptr %3, align 8, !tbaa !21
  br label %44

32:                                               ; preds = %._crit_edge
  %33 = icmp slt i64 %.0, %.pre
  br i1 %33, label %34, label %35

34:                                               ; preds = %32
  store i64 -1, ptr %3, align 8, !tbaa !21
  br label %44

35:                                               ; preds = %32
  %36 = getelementptr inbounds nuw i8, ptr %6, i64 8
  %37 = load ptr, ptr %36, align 8, !tbaa !78
  %38 = tail call i32 @_php_stream_seek(ptr noundef %37, i64 noundef %.0, i32 noundef 0) #15
  %39 = load ptr, ptr %36, align 8, !tbaa !78
  %40 = tail call i64 @_php_stream_tell(ptr noundef %39) #15
  %41 = load i64, ptr %26, align 8, !tbaa !105
  %42 = sub nsw i64 %40, %41
  store i64 %42, ptr %3, align 8, !tbaa !21
  %43 = getelementptr inbounds nuw i8, ptr %6, i64 16
  store i64 %42, ptr %43, align 8, !tbaa !101
  br label %44

44:                                               ; preds = %35, %34, %31
  %.028 = phi i32 [ -1, %31 ], [ -1, %34 ], [ %38, %35 ]
  ret i32 %.028
}